target datalayout = "e-m:e-p270:32:32-p271:32:32-p272:64:64-i64:64-i128:128-f80:128-n8:16:32:64-S128"
target triple = "x86_64-pc-linux-gnu"

; Function Attrs: nounwind uwtable
define internal i32 @zueci_u_lookup_uro(i32 noundef %0, ptr noundef %1, ptr noundef %2, ptr noundef %3, ptr noundef %4) #0 {
  %6 = alloca i32, align 4
  %7 = alloca i32, align 4
  %8 = alloca ptr, align 8
  %9 = alloca ptr, align 8
  %10 = alloca ptr, align 8
  %11 = alloca ptr, align 8
  %12 = alloca i32, align 4
  %13 = alloca i32, align 4
  %14 = alloca i16, align 2
  store i32 %0, ptr %7, align 4
  store ptr %1, ptr %8, align 8
  store ptr %2, ptr %9, align 8
  store ptr %3, ptr %10, align 8
  store ptr %4, ptr %11, align 8
  %15 = load i32, ptr %7, align 4
  %16 = sub i32 %15, 19968
  %17 = lshr i32 %16, 4
  store i32 %17, ptr %12, align 4
  %18 = load i32, ptr %7, align 4
  %19 = and i32 %18, 15
  %20 = shl i32 1, %19
  store i32 %20, ptr %13, align 4
  %21 = load ptr, ptr %8, align 8
  %22 = load i32, ptr %12, align 4
  %23 = zext i32 %22 to i64
  %24 = getelementptr inbounds i16, ptr %21, i64 %23
  %25 = load i16, ptr %24, align 2
  %26 = zext i16 %25 to i32
  %27 = load i32, ptr %13, align 4
  %28 = and i32 %26, %27
  %29 = icmp eq i32 %28, 0
  br i1 %29, label %30, label %31

30:                                               ; preds = %5
  store i32 0, ptr %6, align 4
  br label %81

31:                                               ; preds = %5
  %32 = load ptr, ptr %8, align 8
  %33 = load i32, ptr %12, align 4
  %34 = zext i32 %33 to i64
  %35 = getelementptr inbounds i16, ptr %32, i64 %34
  %36 = load i16, ptr %35, align 2
  %37 = zext i16 %36 to i32
  %38 = load i32, ptr %13, align 4
  %39 = sub i32 %38, 1
  %40 = and i32 %37, %39
  store i32 %40, ptr %13, align 4
  %41 = load i32, ptr %13, align 4
  %42 = load i32, ptr %13, align 4
  %43 = lshr i32 %42, 1
  %44 = and i32 %43, 1431655765
  %45 = sub i32 %41, %44
  store i32 %45, ptr %13, align 4
  %46 = load i32, ptr %13, align 4
  %47 = and i32 %46, 858993459
  %48 = load i32, ptr %13, align 4
  %49 = lshr i32 %48, 2
  %50 = and i32 %49, 858993459
  %51 = add i32 %47, %50
  store i32 %51, ptr %13, align 4
  %52 = load i32, ptr %13, align 4
  %53 = load i32, ptr %13, align 4
  %54 = lshr i32 %53, 4
  %55 = add i32 %52, %54
  %56 = and i32 %55, 252645135
  %57 = mul i32 %56, 16843009
  %58 = lshr i32 %57, 24
  store i32 %58, ptr %13, align 4
  %59 = load ptr, ptr %10, align 8
  %60 = load ptr, ptr %9, align 8
  %61 = load i32, ptr %12, align 4
  %62 = zext i32 %61 to i64
  %63 = getelementptr inbounds i16, ptr %60, i64 %62
  %64 = load i16, ptr %63, align 2
  %65 = zext i16 %64 to i32
  %66 = load i32, ptr %13, align 4
  %67 = add i32 %65, %66
  %68 = zext i32 %67 to i64
  %69 = getelementptr inbounds i16, ptr %59, i64 %68
  %70 = load i16, ptr %69, align 2
  store i16 %70, ptr %14, align 2
  %71 = load i16, ptr %14, align 2
  %72 = zext i16 %71 to i32
  %73 = ashr i32 %72, 8
  %74 = trunc i32 %73 to i8
  %75 = load ptr, ptr %11, align 8
  %76 = getelementptr inbounds i8, ptr %75, i64 0
  store i8 %74, ptr %76, align 1
  %77 = load i16, ptr %14, align 2
  %78 = trunc i16 %77 to i8
  %79 = load ptr, ptr %11, align 8
  %80 = getelementptr inbounds i8, ptr %79, i64 1
  store i8 %78, ptr %80, align 1
  store i32 2, ptr %6, align 4
  br label %81

81:                                               ; preds = %31, %30
  %82 = load i32, ptr %6, align 4
  ret i32 %82
}

; Function Attrs: nounwind uwtable
define internal i32 @zueci_u_sjis(i32 noundef %0, ptr noundef %1) #0 {
  %3 = alloca i32, align 4
  %4 = alloca i32, align 4
  %5 = alloca ptr, align 8
  %6 = alloca i32, align 4
  %7 = alloca i8, align 1
  %8 = alloca i8, align 1
  %9 = alloca i32, align 4
  %10 = alloca i32, align 4
  %11 = alloca i32, align 4
  %12 = alloca i16, align 2
  store i32 %0, ptr %4, align 4
  store ptr %1, ptr %5, align 8
  %13 = load i32, ptr %4, align 4
  %14 = icmp ult i32 %13, 128
  br i1 %14, label %15, label %26

15:                                               ; preds = %2
  %16 = load i32, ptr %4, align 4
  %17 = icmp ne i32 %16, 92
  br i1 %17, label %18, label %26

18:                                               ; preds = %15
  %19 = load i32, ptr %4, align 4
  %20 = icmp ne i32 %19, 126
  br i1 %20, label %21, label %26

21:                                               ; preds = %18
  %22 = load i32, ptr %4, align 4
  %23 = trunc i32 %22 to i8
  %24 = load ptr, ptr %5, align 8
  %25 = getelementptr inbounds i8, ptr %24, i64 0
  store i8 %23, ptr %25, align 1
  store i32 1, ptr %3, align 4
  br label %152

26:                                               ; preds = %18, %15, %2
  %27 = load i32, ptr %4, align 4
  %28 = icmp uge i32 %27, 19968
  br i1 %28, label %29, label %40

29:                                               ; preds = %26
  %30 = load i32, ptr %4, align 4
  %31 = icmp ult i32 %30, 57344
  br i1 %31, label %32, label %40

32:                                               ; preds = %29
  %33 = load i32, ptr %4, align 4
  %34 = icmp ugt i32 %33, 40864
  br i1 %34, label %35, label %36

35:                                               ; preds = %32
  store i32 0, ptr %3, align 4
  br label %152

36:                                               ; preds = %32
  %37 = load i32, ptr %4, align 4
  %38 = load ptr, ptr %5, align 8
  %39 = call i32 @zueci_u_lookup_uro(i32 noundef %37, ptr noundef @zueci_sjis_uro_u, ptr noundef @zueci_sjis_uro_mb_ind, ptr noundef @zueci_sjis_u_mb, ptr noundef %38)
  store i32 %39, ptr %3, align 4
  br label %152

40:                                               ; preds = %29, %26
  %41 = load i32, ptr %4, align 4
  %42 = icmp uge i32 %41, 57344
  br i1 %42, label %43, label %75

43:                                               ; preds = %40
  %44 = load i32, ptr %4, align 4
  %45 = icmp ule i32 %44, 59223
  br i1 %45, label %46, label %75

46:                                               ; preds = %43
  %47 = load i32, ptr %4, align 4
  %48 = sub i32 %47, 57344
  store i32 %48, ptr %6, align 4
  %49 = load i32, ptr %6, align 4
  %50 = udiv i32 %49, 188
  %51 = trunc i32 %50 to i8
  store i8 %51, ptr %7, align 1
  %52 = load i32, ptr %6, align 4
  %53 = load i8, ptr %7, align 1
  %54 = zext i8 %53 to i32
  %55 = mul nsw i32 %54, 188
  %56 = sub i32 %52, %55
  %57 = trunc i32 %56 to i8
  store i8 %57, ptr %8, align 1
  %58 = load i8, ptr %7, align 1
  %59 = zext i8 %58 to i32
  %60 = add nsw i32 %59, 240
  %61 = trunc i32 %60 to i8
  %62 = load ptr, ptr %5, align 8
  %63 = getelementptr inbounds i8, ptr %62, i64 0
  store i8 %61, ptr %63, align 1
  %64 = load i8, ptr %8, align 1
  %65 = zext i8 %64 to i32
  %66 = add nsw i32 %65, 64
  %67 = load i8, ptr %8, align 1
  %68 = zext i8 %67 to i32
  %69 = icmp sge i32 %68, 63
  %70 = zext i1 %69 to i32
  %71 = add nsw i32 %66, %70
  %72 = trunc i32 %71 to i8
  %73 = load ptr, ptr %5, align 8
  %74 = getelementptr inbounds i8, ptr %73, i64 1
  store i8 %72, ptr %74, align 1
  store i32 2, ptr %3, align 4
  br label %152

75:                                               ; preds = %43, %40
  %76 = load i32, ptr %4, align 4
  %77 = load i16, ptr @zueci_sjis_u_u, align 16
  %78 = zext i16 %77 to i32
  %79 = icmp uge i32 %76, %78
  br i1 %79, label %80, label %151

80:                                               ; preds = %75
  %81 = load i32, ptr %4, align 4
  %82 = load i16, ptr getelementptr inbounds ([588 x i16], ptr @zueci_sjis_u_u, i64 0, i64 587), align 2
  %83 = zext i16 %82 to i32
  %84 = icmp ule i32 %81, %83
  br i1 %84, label %85, label %151

85:                                               ; preds = %80
  store i32 0, ptr %9, align 4
  store i32 587, ptr %10, align 4
  br label %86

86:                                               ; preds = %149, %85
  %87 = load i32, ptr %9, align 4
  %88 = load i32, ptr %10, align 4
  %89 = icmp sle i32 %87, %88
  br i1 %89, label %90, label %150

90:                                               ; preds = %86
  %91 = load i32, ptr %9, align 4
  %92 = load i32, ptr %10, align 4
  %93 = add nsw i32 %91, %92
  %94 = ashr i32 %93, 1
  store i32 %94, ptr %11, align 4
  %95 = load i32, ptr %11, align 4
  %96 = sext i32 %95 to i64
  %97 = getelementptr inbounds [588 x i16], ptr @zueci_sjis_u_u, i64 0, i64 %96
  %98 = load i16, ptr %97, align 2
  %99 = zext i16 %98 to i32
  %100 = load i32, ptr %4, align 4
  %101 = icmp ult i32 %99, %100
  br i1 %101, label %102, label %105

102:                                              ; preds = %90
  %103 = load i32, ptr %11, align 4
  %104 = add nsw i32 %103, 1
  store i32 %104, ptr %9, align 4
  br label %149

105:                                              ; preds = %90
  %106 = load i32, ptr %11, align 4
  %107 = sext i32 %106 to i64
  %108 = getelementptr inbounds [588 x i16], ptr @zueci_sjis_u_u, i64 0, i64 %107
  %109 = load i16, ptr %108, align 2
  %110 = zext i16 %109 to i32
  %111 = load i32, ptr %4, align 4
  %112 = icmp ugt i32 %110, %111
  br i1 %112, label %113, label %116

113:                                              ; preds = %105
  %114 = load i32, ptr %11, align 4
  %115 = sub nsw i32 %114, 1
  store i32 %115, ptr %10, align 4
  br label %148

116:                                              ; preds = %105
  %117 = load i32, ptr %4, align 4
  %118 = icmp uge i32 %117, 19968
  br i1 %118, label %119, label %122

119:                                              ; preds = %116
  %120 = load i32, ptr %11, align 4
  %121 = add nsw i32 %120, 6356
  br label %124

122:                                              ; preds = %116
  %123 = load i32, ptr %11, align 4
  br label %124

124:                                              ; preds = %122, %119
  %125 = phi i32 [ %121, %119 ], [ %123, %122 ]
  %126 = sext i32 %125 to i64
  %127 = getelementptr inbounds [6944 x i16], ptr @zueci_sjis_u_mb, i64 0, i64 %126
  %128 = load i16, ptr %127, align 2
  store i16 %128, ptr %12, align 2
  %129 = load i16, ptr %12, align 2
  %130 = zext i16 %129 to i32
  %131 = icmp sgt i32 %130, 255
  br i1 %131, label %132, label %143

132:                                              ; preds = %124
  %133 = load i16, ptr %12, align 2
  %134 = zext i16 %133 to i32
  %135 = ashr i32 %134, 8
  %136 = trunc i32 %135 to i8
  %137 = load ptr, ptr %5, align 8
  %138 = getelementptr inbounds i8, ptr %137, i64 0
  store i8 %136, ptr %138, align 1
  %139 = load i16, ptr %12, align 2
  %140 = trunc i16 %139 to i8
  %141 = load ptr, ptr %5, align 8
  %142 = getelementptr inbounds i8, ptr %141, i64 1
  store i8 %140, ptr %142, align 1
  store i32 2, ptr %3, align 4
  br label %152

143:                                              ; preds = %124
  %144 = load i16, ptr %12, align 2
  %145 = trunc i16 %144 to i8
  %146 = load ptr, ptr %5, align 8
  %147 = getelementptr inbounds i8, ptr %146, i64 0
  store i8 %145, ptr %147, align 1
  store i32 1, ptr %3, align 4
  br label %152

148:                                              ; preds = %113
  br label %149

149:                                              ; preds = %148, %102
  br label %86, !llvm.loop !10

150:                                              ; preds = %86
  br label %151

151:                                              ; preds = %150, %80, %75
  store i32 0, ptr %3, align 4
  br label %152

152:                                              ; preds = %151, %143, %132, %46, %36, %35, %21
  %153 = load i32, ptr %3, align 4
  ret i32 %153
}