; Function Attrs: nofree norecurse nosync nounwind memory(argmem: write) uwtable
define internal noundef i32 @zueci_u_sjis(i32 noundef %0, ptr nocapture noundef writeonly %1) #1 {
  %3 = icmp ult i32 %0, 128
  br i1 %3, label %switch.early.test, label %6

switch.early.test:                                ; preds = %2
  switch i32 %0, label %4 [
    i32 126, label %.preheader.preheader
    i32 92, label %.preheader.preheader
  ]

4:                                                ; preds = %switch.early.test
  %5 = trunc nuw nsw i32 %0 to i8
  store i8 %5, ptr %1, align 1
  br label %zueci_u_lookup_uro.exit

6:                                                ; preds = %2
  %7 = add i32 %0, -19968
  %or.cond5 = icmp ult i32 %7, 37376
  br i1 %or.cond5, label %8, label %46

8:                                                ; preds = %6
  %9 = icmp ugt i32 %0, 40864
  br i1 %9, label %zueci_u_lookup_uro.exit, label %10

10:                                               ; preds = %8
  %11 = lshr i32 %7, 4
  %12 = and i32 %0, 15
  %13 = shl nuw nsw i32 1, %12
  %14 = zext nneg i32 %11 to i64
  %15 = getelementptr inbounds i16, ptr @zueci_sjis_uro_u, i64 %14
  %16 = load i16, ptr %15, align 2
  %17 = zext i16 %16 to i32
  %18 = and i32 %13, %17
  %19 = icmp eq i32 %18, 0
  br i1 %19, label %zueci_u_lookup_uro.exit, label %20

20:                                               ; preds = %10
  %21 = add nuw nsw i32 %13, 65535
  %22 = and i32 %21, %17
  %23 = lshr i32 %22, 1
  %24 = and i32 %23, 21845
  %25 = sub nsw i32 %22, %24
  %26 = and i32 %25, 858993459
  %27 = lshr i32 %25, 2
  %28 = and i32 %27, 858993459
  %29 = add nuw nsw i32 %28, %26
  %30 = lshr i32 %29, 4
  %31 = add nuw nsw i32 %30, %29
  %32 = and i32 %31, 252645135
  %33 = mul i32 %32, 16843009
  %34 = lshr i32 %33, 24
  %35 = getelementptr inbounds i16, ptr @zueci_sjis_uro_mb_ind, i64 %14
  %36 = load i16, ptr %35, align 2
  %37 = zext i16 %36 to i32
  %38 = add nuw nsw i32 %34, %37
  %39 = zext nneg i32 %38 to i64
  %40 = getelementptr inbounds i16, ptr @zueci_sjis_u_mb, i64 %39
  %41 = load i16, ptr %40, align 2
  %42 = lshr i16 %41, 8
  %43 = trunc nuw i16 %42 to i8
  store i8 %43, ptr %1, align 1
  %44 = trunc i16 %41 to i8
  %45 = getelementptr inbounds i8, ptr %1, i64 1
  store i8 %44, ptr %45, align 1
  br label %zueci_u_lookup_uro.exit

46:                                               ; preds = %6
  %47 = add i32 %0, -57344
  %or.cond7 = icmp ult i32 %47, 1880
  br i1 %or.cond7, label %48, label %.thread57

48:                                               ; preds = %46
  %.lhs.trunc = trunc nuw i32 %47 to i16
  %49 = udiv i16 %.lhs.trunc, 188
  %narrow = mul nuw nsw i16 %49, 68
  %.neg = zext nneg i16 %narrow to i32
  %50 = add nuw nsw i32 %.neg, %0
  %51 = trunc nuw i16 %49 to i8
  %52 = or disjoint i8 %51, -16
  store i8 %52, ptr %1, align 1
  %53 = and i32 %50, 255
  %54 = add nuw nsw i32 %50, 64
  %55 = icmp ugt i32 %53, 62
  %56 = zext i1 %55 to i32
  %57 = add nuw nsw i32 %54, %56
  %58 = trunc i32 %57 to i8
  %59 = getelementptr inbounds i8, ptr %1, i64 1
  store i8 %58, ptr %59, align 1
  br label %zueci_u_lookup_uro.exit

.thread57:                                        ; preds = %46
  %60 = icmp ugt i32 %0, 19967
  %61 = add i32 %0, -92
  %or.cond = icmp ult i32 %61, 65418
  br i1 %or.cond, label %.preheader.preheader, label %zueci_u_lookup_uro.exit

.preheader.preheader:                             ; preds = %switch.early.test, %switch.early.test, %.thread57
  %62 = phi i1 [ %60, %.thread57 ], [ false, %switch.early.test ], [ false, %switch.early.test ]
  br label %.preheader

.preheader:                                       ; preds = %.preheader.preheader, %90
  %.05060 = phi i32 [ %.1, %90 ], [ 0, %.preheader.preheader ]
  %.05159 = phi i32 [ %.152, %90 ], [ 587, %.preheader.preheader ]
  %63 = add nsw i32 %.05060, %.05159
  %64 = ashr i32 %63, 1
  %65 = sext i32 %64 to i64
  %66 = getelementptr inbounds [588 x i16], ptr @zueci_sjis_u_u, i64 0, i64 %65
  %67 = load i16, ptr %66, align 2
  %68 = zext i16 %67 to i32
  %69 = icmp ult i32 %68, %0
  br i1 %69, label %70, label %72

70:                                               ; preds = %.preheader
  %71 = add nsw i32 %64, 1
  br label %90

72:                                               ; preds = %.preheader
  %73 = icmp ugt i32 %68, %0
  br i1 %73, label %74, label %76

74:                                               ; preds = %72
  %75 = add nsw i32 %64, -1
  br label %90

76:                                               ; preds = %72
  %77 = add nsw i32 %64, 6356
  %78 = select i1 %62, i32 %77, i32 %64
  %79 = sext i32 %78 to i64
  %80 = getelementptr inbounds [6944 x i16], ptr @zueci_sjis_u_mb, i64 0, i64 %79
  %81 = load i16, ptr %80, align 2
  %82 = icmp ugt i16 %81, 255
  br i1 %82, label %83, label %88

83:                                               ; preds = %76
  %84 = lshr i16 %81, 8
  %85 = trunc nuw i16 %84 to i8
  store i8 %85, ptr %1, align 1
  %86 = trunc i16 %81 to i8
  %87 = getelementptr inbounds i8, ptr %1, i64 1
  store i8 %86, ptr %87, align 1
  br label %zueci_u_lookup_uro.exit

88:                                               ; preds = %76
  %89 = trunc nuw i16 %81 to i8
  store i8 %89, ptr %1, align 1
  br label %zueci_u_lookup_uro.exit

90:                                               ; preds = %74, %70
  %.152 = phi i32 [ %.05159, %70 ], [ %75, %74 ]
  %.1 = phi i32 [ %71, %70 ], [ %.05060, %74 ]
  %.not = icmp sgt i32 %.1, %.152
  br i1 %.not, label %zueci_u_lookup_uro.exit, label %.preheader, !llvm.loop !10

zueci_u_lookup_uro.exit:                          ; preds = %90, %20, %10, %.thread57, %8, %88, %83, %48, %4
  %.0 = phi i32 [ 1, %4 ], [ 2, %48 ], [ 2, %83 ], [ 1, %88 ], [ 0, %8 ], [ 0, %.thread57 ], [ 2, %20 ], [ 0, %10 ], [ 0, %90 ]
  ret i32 %.0
}